target datalayout = "e-m:e-p270:32:32-p271:32:32-p272:64:64-i64:64-i128:128-f80:128-n8:16:32:64-S128"
target triple = "x86_64-pc-linux-gnu"

%struct.QemuMutex = type { %union.pthread_mutex_t, i8 }
%union.pthread_mutex_t = type { %struct.__pthread_mutex_s }
%struct.__pthread_mutex_s = type { i32, i32, i32, i32, i32, i16, i16, %struct.__pthread_internal_list }
%struct.__pthread_internal_list = type { ptr, ptr }
%struct.TransactionActionDrv = type { ptr, ptr, ptr }
%struct.BlockJob = type { %struct.Job, i32, i64, %struct.RateLimit, ptr, %struct.Notifier, %struct.Notifier, %struct.Notifier, %struct.Notifier, %struct.Notifier, ptr }
%struct.Job = type { ptr, ptr, ptr, i8, i8, ptr, ptr, %struct.ProgressMeter, ptr, i32, i32, %struct.QEMUTimer, i32, i8, i8, i8, i8, i8, i8, i32, ptr, %struct.NotifierList, %struct.NotifierList, %struct.NotifierList, %struct.NotifierList, %struct.NotifierList, %struct.anon.0, ptr, %struct.anon.1 }
%struct.ProgressMeter = type { i64, i64, %struct.QemuMutex }
%struct.QEMUTimer = type { i64, ptr, ptr, ptr, ptr, i32, i32 }
%struct.NotifierList = type { %struct.anon }
%struct.anon = type { ptr }
%struct.anon.0 = type { ptr, ptr }
%struct.anon.1 = type { ptr, ptr }
%struct.RateLimit = type { %struct.QemuMutex, i64, i64, i64, i64, i64 }
%struct.Notifier = type { ptr, %struct.anon.2 }
%struct.anon.2 = type { ptr, ptr }
%struct._GSList = type { ptr, ptr }
%struct.BdrvChild = type { ptr, ptr, ptr, i32, ptr, i64, i64, i8, i8, %struct.anon.3, %struct.anon.4 }
%struct.anon.3 = type { ptr, ptr }
%struct.anon.4 = type { ptr, ptr }
%struct.BdrvStateChildJobContext = type { ptr, ptr }

@change_child_job_context = internal global %struct.TransactionActionDrv { ptr null, ptr @child_job_set_aio_ctx_commit, ptr @g_free }, align 8

; Function Attrs: nounwind sspstrong uwtable
define internal zeroext i1 @child_job_change_aio_ctx(ptr noundef %0, ptr noundef %1, ptr noundef %2, ptr noundef %3, ptr noundef %4) #0 {
  %6 = alloca i1, align 1
  %7 = alloca ptr, align 8
  %8 = alloca ptr, align 8
  %9 = alloca ptr, align 8
  %10 = alloca ptr, align 8
  %11 = alloca ptr, align 8
  %12 = alloca ptr, align 8
  %13 = alloca ptr, align 8
  %14 = alloca ptr, align 8
  %15 = alloca ptr, align 8
  %16 = alloca i32, align 4
  %17 = alloca i64, align 8
  %18 = alloca i64, align 8
  %19 = alloca ptr, align 8
  %20 = alloca ptr, align 8
  %21 = alloca %struct.BdrvStateChildJobContext, align 8
  store ptr %0, ptr %7, align 8
  store ptr %1, ptr %8, align 8
  store ptr %2, ptr %9, align 8
  store ptr %3, ptr %10, align 8
  store ptr %4, ptr %11, align 8
  call void @llvm.lifetime.start.p0(i64 8, ptr %12) #12
  %22 = load ptr, ptr %7, align 8
  %23 = getelementptr inbounds nuw %struct.BdrvChild, ptr %22, i32 0, i32 4
  %24 = load ptr, ptr %23, align 8
  store ptr %24, ptr %12, align 8
  call void @llvm.lifetime.start.p0(i64 8, ptr %13) #12
  store ptr null, ptr %13, align 8, !annotation !8
  call void @llvm.lifetime.start.p0(i64 8, ptr %14) #12
  store ptr null, ptr %14, align 8, !annotation !8
  %25 = load ptr, ptr %12, align 8
  %26 = getelementptr inbounds nuw %struct.BlockJob, ptr %25, i32 0, i32 10
  %27 = load ptr, ptr %26, align 8
  store ptr %27, ptr %14, align 8
  br label %28

28:                                               ; preds = %46, %5
  %29 = load ptr, ptr %14, align 8
  %30 = icmp ne ptr %29, null
  br i1 %30, label %31, label %50

31:                                               ; preds = %28
  call void @llvm.lifetime.start.p0(i64 8, ptr %15) #12
  %32 = load ptr, ptr %14, align 8
  %33 = getelementptr inbounds nuw %struct._GSList, ptr %32, i32 0, i32 0
  %34 = load ptr, ptr %33, align 8
  store ptr %34, ptr %15, align 8
  %35 = load ptr, ptr %15, align 8
  %36 = load ptr, ptr %8, align 8
  %37 = load ptr, ptr %9, align 8
  %38 = load ptr, ptr %10, align 8
  %39 = load ptr, ptr %11, align 8
  %40 = call zeroext i1 @bdrv_child_change_aio_context(ptr noundef %35, ptr noundef %36, ptr noundef %37, ptr noundef %38, ptr noundef %39)
  br i1 %40, label %42, label %41

41:                                               ; preds = %31
  store i1 false, ptr %6, align 1
  store i32 1, ptr %16, align 4
  br label %43

42:                                               ; preds = %31
  store i32 0, ptr %16, align 4
  br label %43

43:                                               ; preds = %42, %41
  call void @llvm.lifetime.end.p0(i64 8, ptr %15) #12
  %44 = load i32, ptr %16, align 4
  switch i32 %44, label %87 [
    i32 0, label %45
  ]

45:                                               ; preds = %43
  br label %46

46:                                               ; preds = %45
  %47 = load ptr, ptr %14, align 8
  %48 = getelementptr inbounds nuw %struct._GSList, ptr %47, i32 0, i32 1
  %49 = load ptr, ptr %48, align 8
  store ptr %49, ptr %14, align 8
  br label %28, !llvm.loop !16

50:                                               ; preds = %28
  call void @llvm.lifetime.start.p0(i64 8, ptr %17) #12
  store i64 1, ptr %17, align 8
  call void @llvm.lifetime.start.p0(i64 8, ptr %18) #12
  store i64 16, ptr %18, align 8
  call void @llvm.lifetime.start.p0(i64 8, ptr %19) #12
  store ptr null, ptr %19, align 8, !annotation !8
  %51 = load i64, ptr %18, align 8
  %52 = icmp eq i64 %51, 1
  br i1 %52, label %53, label %56

53:                                               ; preds = %50
  %54 = load i64, ptr %17, align 8
  %55 = call noalias ptr @g_malloc(i64 noundef %54) #15
  store ptr %55, ptr %19, align 8
  br label %77

56:                                               ; preds = %50
  %57 = load i64, ptr %17, align 8
  %58 = call i1 @llvm.is.constant.i64(i64 %57)
  br i1 %58, label %59, label %72

59:                                               ; preds = %56
  %60 = load i64, ptr %18, align 8
  %61 = icmp eq i64 %60, 0
  br i1 %61, label %67, label %62

62:                                               ; preds = %59
  %63 = load i64, ptr %17, align 8
  %64 = load i64, ptr %18, align 8
  %65 = udiv i64 -1, %64
  %66 = icmp ule i64 %63, %65
  br i1 %66, label %67, label %72

67:                                               ; preds = %62, %59
  %68 = load i64, ptr %17, align 8
  %69 = load i64, ptr %18, align 8
  %70 = mul i64 %68, %69
  %71 = call noalias ptr @g_malloc(i64 noundef %70) #15
  store ptr %71, ptr %19, align 8
  br label %76

72:                                               ; preds = %62, %56
  %73 = load i64, ptr %17, align 8
  %74 = load i64, ptr %18, align 8
  %75 = call noalias ptr @g_malloc_n(i64 noundef %73, i64 noundef %74) #16
  store ptr %75, ptr %19, align 8
  br label %76

76:                                               ; preds = %72, %67
  br label %77

77:                                               ; preds = %76, %53
  %78 = load ptr, ptr %19, align 8
  store ptr %78, ptr %20, align 8
  call void @llvm.lifetime.end.p0(i64 8, ptr %19) #12
  call void @llvm.lifetime.end.p0(i64 8, ptr %18) #12
  call void @llvm.lifetime.end.p0(i64 8, ptr %17) #12
  %79 = load ptr, ptr %20, align 8
  store ptr %79, ptr %13, align 8
  %80 = load ptr, ptr %13, align 8
  %81 = getelementptr inbounds nuw %struct.BdrvStateChildJobContext, ptr %21, i32 0, i32 0
  %82 = load ptr, ptr %8, align 8
  store ptr %82, ptr %81, align 8
  %83 = getelementptr inbounds nuw %struct.BdrvStateChildJobContext, ptr %21, i32 0, i32 1
  %84 = load ptr, ptr %12, align 8
  store ptr %84, ptr %83, align 8
  call void @llvm.memcpy.p0.p0.i64(ptr align 8 %80, ptr align 8 %21, i64 16, i1 false)
  %85 = load ptr, ptr %10, align 8
  %86 = load ptr, ptr %13, align 8
  call void @tran_add(ptr noundef %85, ptr noundef @change_child_job_context, ptr noundef %86)
  store i1 true, ptr %6, align 1
  store i32 1, ptr %16, align 4
  br label %87

87:                                               ; preds = %77, %43
  call void @llvm.lifetime.end.p0(i64 8, ptr %14) #12
  call void @llvm.lifetime.end.p0(i64 8, ptr %13) #12
  call void @llvm.lifetime.end.p0(i64 8, ptr %12) #12
  %88 = load i1, ptr %6, align 1
  ret i1 %88
}