; Function Attrs: nounwind sspstrong uwtable
define internal noundef zeroext i1 @child_job_change_aio_ctx(ptr noundef readonly captures(none) %0, ptr noundef %1, ptr noundef %2, ptr noundef %3, ptr noundef %4) #0 {
  %6 = getelementptr inbounds nuw i8, ptr %0, i64 32
  %7 = load ptr, ptr %6, align 8
  %8 = getelementptr inbounds nuw i8, ptr %7, i64 512
  %.02833 = load ptr, ptr %8, align 8
  %.not34 = icmp eq ptr %.02833, null
  br i1 %.not34, label %._crit_edge, label %.lr.ph

9:                                                ; preds = %.lr.ph
  %10 = getelementptr inbounds nuw i8, ptr %.02835, i64 8
  %.028 = load ptr, ptr %10, align 8
  %.not = icmp eq ptr %.028, null
  br i1 %.not, label %._crit_edge, label %.lr.ph, !llvm.loop !12

.lr.ph:                                           ; preds = %5, %9
  %.02835 = phi ptr [ %.028, %9 ], [ %.02833, %5 ]
  %11 = load ptr, ptr %.02835, align 8
  %12 = tail call zeroext i1 @bdrv_child_change_aio_context(ptr noundef %11, ptr noundef %1, ptr noundef %2, ptr noundef %3, ptr noundef %4) #8
  br i1 %12, label %9, label %.loopexit

._crit_edge:                                      ; preds = %9, %5
  %13 = tail call noalias dereferenceable_or_null(16) ptr @g_malloc(i64 noundef 16) #10
  store ptr %1, ptr %13, align 8
  %.sroa.2.0..sroa_idx = getelementptr inbounds nuw i8, ptr %13, i64 8
  store ptr %7, ptr %.sroa.2.0..sroa_idx, align 8
  tail call void @tran_add(ptr noundef %3, ptr noundef nonnull @change_child_job_context, ptr noundef nonnull %13) #8
  br label %.loopexit

.loopexit:                                        ; preds = %.lr.ph, %._crit_edge
  %.not32 = phi i1 [ true, %._crit_edge ], [ false, %.lr.ph ]
  ret i1 %.not32
}